target datalayout = "e-m:e-p270:32:32-p271:32:32-p272:64:64-i64:64-i128:128-f80:128-n8:16:32:64-S128"
target triple = "x86_64-pc-linux-gnu"

%struct.H5O_loc_t = type { ptr, i64, i8 }
%struct.H5F_t = type { ptr, ptr, ptr, ptr, i32, ptr, i8, i8, ptr, i32 }
%struct.H5C_cache_entry_t = type { ptr, i64, i64, ptr, i8, ptr, i8, i8, i8, i8, i32, i8, i8, i8, i8, i8, i32, ptr, i32, i32, i32, i32, i32, i8, i8, ptr, ptr, ptr, ptr, ptr, ptr, i8, i32, i8, i64, ptr, i64, i64, i32, i8, i32, i32, i8, ptr, ptr, ptr }
%struct.H5F_shared_t = type { ptr, ptr, ptr, i8, i32, i32, %struct.H5F_mtab_t, ptr, i8, i8, i64, i32, i32, i64, i64, ptr, ptr, %struct.H5AC_cache_config_t, %struct.H5AC_cache_image_config_t, i8, i8, ptr, i64, i32, i8, i64, i64, double, i64, i64, i64, i32, i32, i32, i8, i32, ptr, ptr, ptr, ptr, i8, i8, i8, i64, ptr, ptr, i32, i64, i8, i32, i8, i64, i8, [13 x i32], [13 x i64], [13 x ptr], i8, i64, i64, [7 x i32], [7 x i32], %struct.H5F_blk_aggr_t, %struct.H5F_blk_aggr_t, i64, i64, %struct.H5F_meta_accum_t, i32, i32, [30 x ptr], %struct.H5F_object_flush_t, i8, ptr }
%struct.H5F_mtab_t = type { i32, i32, ptr }
%struct.H5AC_cache_config_t = type { i32, i8, i8, i8, [1025 x i8], i8, i8, i64, double, i64, i64, i64, i32, double, double, i8, i64, i32, double, double, i32, double, double, i8, i64, i32, i8, double, i64, i32 }
%struct.H5AC_cache_image_config_t = type { i32, i8, i8, i32 }
%struct.H5F_blk_aggr_t = type { i64, i64, i64, i64, i64 }
%struct.H5F_meta_accum_t = type { ptr, i64, i64, i64, i64, i64, i8 }
%struct.H5F_object_flush_t = type { ptr, ptr }
%struct.H5F_super_t = type { %struct.H5C_cache_entry_t, i32, i8, i8, i8, i32, [2 x i32], i64, i64, i64, i64, ptr }

@H5F_init_g = external global i8, align 1
@H5_libterm_g = external global i8, align 1
@.str.1 = private unnamed_addr constant [102 x i8] c"generated/home/dtcxzyw/WorkSpace/Projects/compilers/llvm-opt-benchmark/bench/hdf5/hdf5/src/H5Fsuper.c\00", align 1
@H5E_FILE_g = external global i64, align 8
@H5E_CANTCREATE_g = external global i64, align 8
@.str.78 = private unnamed_addr constant [38 x i8] c"unable to create superblock extension\00", align 1
@__func__.H5F__super_ext_create = private unnamed_addr constant [22 x i8] c"H5F__super_ext_create\00", align 1
@.str.103 = private unnamed_addr constant [65 x i8] c"superblock extension not permitted with version %u of superblock\00", align 1
@.str.104 = private unnamed_addr constant [40 x i8] c"superblock extension already exists?!?!\00", align 1
@H5P_LST_GROUP_CREATE_ID_g = external global i64, align 8

; Function Attrs: nounwind uwtable
define internal i32 @H5F__super_ext_create(ptr noundef %0, ptr noundef %1) #0 {
  %3 = alloca ptr, align 8
  %4 = alloca ptr, align 8
  %5 = alloca i32, align 4
  %6 = alloca i8, align 1
  store ptr %0, ptr %3, align 8, !tbaa !3
  store ptr %1, ptr %4, align 8, !tbaa !10
  call void @llvm.lifetime.start.p0(i64 4, ptr %5) #7
  store i32 0, ptr %5, align 4, !tbaa !12
  call void @llvm.lifetime.start.p0(i64 1, ptr %6) #7
  store i8 0, ptr %6, align 1, !tbaa !14
  %7 = load i8, ptr @H5F_init_g, align 1, !tbaa !14, !range !16, !noundef !17
  %8 = trunc i8 %7 to i1
  br i1 %8, label %13, label %9

9:                                                ; preds = %2
  %10 = load i8, ptr @H5_libterm_g, align 1, !tbaa !14, !range !16, !noundef !17
  %11 = trunc i8 %10 to i1
  %12 = xor i1 %11, true
  br label %13

13:                                               ; preds = %9, %2
  %14 = phi i1 [ true, %2 ], [ %12, %9 ]
  %15 = xor i1 %14, true
  %16 = xor i1 %15, true
  %17 = zext i1 %16 to i32
  %18 = sext i32 %17 to i64
  %19 = call i64 @llvm.expect.i64(i64 %18, i64 1)
  %20 = icmp ne i64 %19, 0
  br i1 %20, label %21, label %124

21:                                               ; preds = %13
  %22 = load ptr, ptr %3, align 8, !tbaa !3
  %23 = getelementptr inbounds nuw %struct.H5F_t, ptr %22, i32 0, i32 2
  %24 = load ptr, ptr %23, align 8, !tbaa !31
  %25 = getelementptr inbounds nuw %struct.H5F_shared_t, ptr %24, i32 0, i32 1
  %26 = load ptr, ptr %25, align 8, !tbaa !109
  %27 = getelementptr inbounds nuw %struct.H5F_super_t, ptr %26, i32 0, i32 1
  %28 = load i32, ptr %27, align 8, !tbaa !64
  %29 = icmp ult i32 %28, 2
  br i1 %29, label %30, label %56

30:                                               ; preds = %21
  br label %31

31:                                               ; preds = %30
  br label %32

32:                                               ; preds = %31
  br label %33

33:                                               ; preds = %32
  %34 = load i64, ptr @H5E_FILE_g, align 8, !tbaa !8
  %35 = load i64, ptr @H5E_CANTCREATE_g, align 8, !tbaa !8
  %36 = load ptr, ptr %3, align 8, !tbaa !3
  %37 = getelementptr inbounds nuw %struct.H5F_t, ptr %36, i32 0, i32 2
  %38 = load ptr, ptr %37, align 8, !tbaa !31
  %39 = getelementptr inbounds nuw %struct.H5F_shared_t, ptr %38, i32 0, i32 1
  %40 = load ptr, ptr %39, align 8, !tbaa !109
  %41 = getelementptr inbounds nuw %struct.H5F_super_t, ptr %40, i32 0, i32 1
  %42 = load i32, ptr %41, align 8, !tbaa !64
  %43 = call i32 (ptr, ptr, i32, i64, i64, ptr, ...) @H5E_printf_stack(ptr noundef @.str.1, ptr noundef @__func__.H5F__super_ext_create, i32 noundef 106, i64 noundef %34, i64 noundef %35, ptr noundef @.str.103, i32 noundef %42)
  br label %44

44:                                               ; preds = %33
  br label %45

45:                                               ; preds = %44
  store i8 1, ptr %6, align 1, !tbaa !14
  %46 = load i8, ptr %6, align 1, !tbaa !14, !range !16, !noundef !17
  %47 = trunc i8 %46 to i1
  %48 = zext i1 %47 to i8
  store i8 %48, ptr %6, align 1, !tbaa !14
  br label %49

49:                                               ; preds = %45
  br label %50

50:                                               ; preds = %49
  br label %51

51:                                               ; preds = %50
  store i32 -1, ptr %5, align 4, !tbaa !12
  br label %123

52:                                               ; No predecessors!
  br label %53

53:                                               ; preds = %52
  br label %54

54:                                               ; preds = %53
  br label %55

55:                                               ; preds = %54
  br label %122

56:                                               ; preds = %21
  %57 = load ptr, ptr %3, align 8, !tbaa !3
  %58 = getelementptr inbounds nuw %struct.H5F_t, ptr %57, i32 0, i32 2
  %59 = load ptr, ptr %58, align 8, !tbaa !31
  %60 = getelementptr inbounds nuw %struct.H5F_shared_t, ptr %59, i32 0, i32 1
  %61 = load ptr, ptr %60, align 8, !tbaa !109
  %62 = getelementptr inbounds nuw %struct.H5F_super_t, ptr %61, i32 0, i32 8
  %63 = load i64, ptr %62, align 8, !tbaa !82
  %64 = icmp ne i64 %63, -1
  br i1 %64, label %65, label %84

65:                                               ; preds = %56
  br label %66

66:                                               ; preds = %65
  br label %67

67:                                               ; preds = %66
  br label %68

68:                                               ; preds = %67
  %69 = load i64, ptr @H5E_FILE_g, align 8, !tbaa !8
  %70 = load i64, ptr @H5E_CANTCREATE_g, align 8, !tbaa !8
  %71 = call i32 (ptr, ptr, i32, i64, i64, ptr, ...) @H5E_printf_stack(ptr noundef @.str.1, ptr noundef @__func__.H5F__super_ext_create, i32 noundef 108, i64 noundef %69, i64 noundef %70, ptr noundef @.str.104)
  br label %72

72:                                               ; preds = %68
  br label %73

73:                                               ; preds = %72
  store i8 1, ptr %6, align 1, !tbaa !14
  %74 = load i8, ptr %6, align 1, !tbaa !14, !range !16, !noundef !17
  %75 = trunc i8 %74 to i1
  %76 = zext i1 %75 to i8
  store i8 %76, ptr %6, align 1, !tbaa !14
  br label %77

77:                                               ; preds = %73
  br label %78

78:                                               ; preds = %77
  br label %79

79:                                               ; preds = %78
  store i32 -1, ptr %5, align 4, !tbaa !12
  br label %123

80:                                               ; No predecessors!
  br label %81

81:                                               ; preds = %80
  br label %82

82:                                               ; preds = %81
  br label %83

83:                                               ; preds = %82
  br label %121

84:                                               ; preds = %56
  %85 = load ptr, ptr %4, align 8, !tbaa !10
  %86 = call i32 @H5O_loc_reset(ptr noundef %85)
  %87 = load ptr, ptr %3, align 8, !tbaa !3
  %88 = load i64, ptr @H5P_LST_GROUP_CREATE_ID_g, align 8, !tbaa !8
  %89 = load ptr, ptr %4, align 8, !tbaa !10
  %90 = call i32 @H5O_create(ptr noundef %87, i64 noundef 0, i64 noundef 1, i64 noundef %88, ptr noundef %89)
  %91 = icmp slt i32 %90, 0
  br i1 %91, label %92, label %111

92:                                               ; preds = %84
  br label %93

93:                                               ; preds = %92
  br label %94

94:                                               ; preds = %93
  br label %95

95:                                               ; preds = %94
  %96 = load i64, ptr @H5E_FILE_g, align 8, !tbaa !8
  %97 = load i64, ptr @H5E_CANTCREATE_g, align 8, !tbaa !8
  %98 = call i32 (ptr, ptr, i32, i64, i64, ptr, ...) @H5E_printf_stack(ptr noundef @.str.1, ptr noundef @__func__.H5F__super_ext_create, i32 noundef 120, i64 noundef %96, i64 noundef %97, ptr noundef @.str.78)
  br label %99

99:                                               ; preds = %95
  br label %100

100:                                              ; preds = %99
  store i8 1, ptr %6, align 1, !tbaa !14
  %101 = load i8, ptr %6, align 1, !tbaa !14, !range !16, !noundef !17
  %102 = trunc i8 %101 to i1
  %103 = zext i1 %102 to i8
  store i8 %103, ptr %6, align 1, !tbaa !14
  br label %104

104:                                              ; preds = %100
  br label %105

105:                                              ; preds = %104
  br label %106

106:                                              ; preds = %105
  store i32 -1, ptr %5, align 4, !tbaa !12
  br label %123

107:                                              ; No predecessors!
  br label %108

108:                                              ; preds = %107
  br label %109

109:                                              ; preds = %108
  br label %110

110:                                              ; preds = %109
  br label %111

111:                                              ; preds = %110, %84
  %112 = load ptr, ptr %4, align 8, !tbaa !10
  %113 = getelementptr inbounds nuw %struct.H5O_loc_t, ptr %112, i32 0, i32 1
  %114 = load i64, ptr %113, align 8, !tbaa !20
  %115 = load ptr, ptr %3, align 8, !tbaa !3
  %116 = getelementptr inbounds nuw %struct.H5F_t, ptr %115, i32 0, i32 2
  %117 = load ptr, ptr %116, align 8, !tbaa !31
  %118 = getelementptr inbounds nuw %struct.H5F_shared_t, ptr %117, i32 0, i32 1
  %119 = load ptr, ptr %118, align 8, !tbaa !109
  %120 = getelementptr inbounds nuw %struct.H5F_super_t, ptr %119, i32 0, i32 8
  store i64 %114, ptr %120, align 8, !tbaa !82
  br label %121

121:                                              ; preds = %111, %83
  br label %122

122:                                              ; preds = %121, %55
  br label %123

123:                                              ; preds = %122, %106, %79, %51
  br label %124

124:                                              ; preds = %123, %13
  %125 = load i32, ptr %5, align 4, !tbaa !12
  call void @llvm.lifetime.end.p0(i64 1, ptr %6) #7
  call void @llvm.lifetime.end.p0(i64 4, ptr %5) #7
  ret i32 %125
}