; Function Attrs: nounwind uwtable
define internal fastcc range(i32 -1, 1) i32 @H5F__super_ext_create(ptr noundef %0, ptr noundef nonnull %1) unnamed_addr #0 {
  %3 = load i8, ptr @H5F_init_g, align 1, !tbaa !3, !range !7, !noundef !8
  %4 = trunc nuw i8 %3 to i1
  %5 = load i8, ptr @H5_libterm_g, align 1, !range !7
  %6 = trunc nuw i8 %5 to i1
  %7 = xor i1 %6, true
  %8 = select i1 %4, i1 true, i1 %7
  br i1 %8, label %9, label %44, !prof !9

9:                                                ; preds = %2
  %10 = getelementptr inbounds nuw i8, ptr %0, i64 16
  %11 = load ptr, ptr %10, align 8, !tbaa !25
  %12 = getelementptr inbounds nuw i8, ptr %11, i64 8
  %13 = load ptr, ptr %12, align 8, !tbaa !102
  %14 = getelementptr inbounds nuw i8, ptr %13, i64 248
  %15 = load i32, ptr %14, align 8, !tbaa !58
  %16 = icmp ult i32 %15, 2
  br i1 %16, label %17, label %21

17:                                               ; preds = %9
  %18 = load i64, ptr @H5E_FILE_g, align 8, !tbaa !16
  %19 = load i64, ptr @H5E_CANTCREATE_g, align 8, !tbaa !16
  %20 = tail call i32 (ptr, ptr, i32, i64, i64, ptr, ...) @H5E_printf_stack(ptr noundef nonnull @.str.1, ptr noundef nonnull @__func__.H5F__super_ext_create, i32 noundef 106, i64 noundef %18, i64 noundef %19, ptr noundef nonnull @.str.103, i32 noundef %15) #6
  br label %44

21:                                               ; preds = %9
  %22 = getelementptr inbounds nuw i8, ptr %13, i64 280
  %23 = load i64, ptr %22, align 8, !tbaa !75
  %.not = icmp eq i64 %23, -1
  br i1 %.not, label %28, label %24

24:                                               ; preds = %21
  %25 = load i64, ptr @H5E_FILE_g, align 8, !tbaa !16
  %26 = load i64, ptr @H5E_CANTCREATE_g, align 8, !tbaa !16
  %27 = tail call i32 (ptr, ptr, i32, i64, i64, ptr, ...) @H5E_printf_stack(ptr noundef nonnull @.str.1, ptr noundef nonnull @__func__.H5F__super_ext_create, i32 noundef 108, i64 noundef %25, i64 noundef %26, ptr noundef nonnull @.str.104) #6
  br label %44

28:                                               ; preds = %21
  %29 = tail call i32 @H5O_loc_reset(ptr noundef nonnull %1) #6
  %30 = load i64, ptr @H5P_LST_GROUP_CREATE_ID_g, align 8, !tbaa !16
  %31 = tail call i32 @H5O_create(ptr noundef nonnull %0, i64 noundef 0, i64 noundef 1, i64 noundef %30, ptr noundef nonnull %1) #6
  %32 = icmp slt i32 %31, 0
  br i1 %32, label %33, label %37

33:                                               ; preds = %28
  %34 = load i64, ptr @H5E_FILE_g, align 8, !tbaa !16
  %35 = load i64, ptr @H5E_CANTCREATE_g, align 8, !tbaa !16
  %36 = tail call i32 (ptr, ptr, i32, i64, i64, ptr, ...) @H5E_printf_stack(ptr noundef nonnull @.str.1, ptr noundef nonnull @__func__.H5F__super_ext_create, i32 noundef 120, i64 noundef %34, i64 noundef %35, ptr noundef nonnull @.str.78) #6
  br label %44

37:                                               ; preds = %28
  %38 = getelementptr inbounds nuw i8, ptr %1, i64 8
  %39 = load i64, ptr %38, align 8, !tbaa !15
  %40 = load ptr, ptr %10, align 8, !tbaa !25
  %41 = getelementptr inbounds nuw i8, ptr %40, i64 8
  %42 = load ptr, ptr %41, align 8, !tbaa !102
  %43 = getelementptr inbounds nuw i8, ptr %42, i64 280
  store i64 %39, ptr %43, align 8, !tbaa !75
  br label %44

44:                                               ; preds = %17, %24, %33, %37, %2
  %.0 = phi i32 [ -1, %17 ], [ -1, %24 ], [ -1, %33 ], [ 0, %37 ], [ 0, %2 ]
  ret i32 %.0
}